; Function Attrs: nounwind uwtable
define internal range(i32 -1, 1) i32 @H5FA__cache_hdr_notify(i32 noundef %0, ptr noundef %1) #0 {
  %3 = load i8, ptr @H5FA_init_g, align 1, !tbaa !3, !range !7, !noundef !8
  %4 = trunc nuw i8 %3 to i1
  %5 = load i8, ptr @H5_libterm_g, align 1, !range !7
  %6 = trunc nuw i8 %5 to i1
  %7 = xor i1 %6, true
  %8 = select i1 %4, i1 true, i1 %7
  br i1 %8, label %9, label %41, !prof !9

9:                                                ; preds = %2
  %10 = getelementptr inbounds nuw i8, ptr %1, i64 376
  %11 = load i8, ptr %10, align 8, !tbaa !51, !range !7, !noundef !8
  %12 = trunc nuw i8 %11 to i1
  br i1 %12, label %13, label %41

13:                                               ; preds = %9
  switch i32 %0, label %37 [
    i32 0, label %41
    i32 1, label %41
    i32 2, label %41
    i32 4, label %41
    i32 5, label %41
    i32 6, label %41
    i32 7, label %41
    i32 8, label %41
    i32 9, label %41
    i32 3, label %14
  ]

14:                                               ; preds = %13
  %15 = getelementptr inbounds nuw i8, ptr %1, i64 392
  %16 = load ptr, ptr %15, align 8, !tbaa !52
  %.not = icmp eq ptr %16, null
  br i1 %.not, label %27, label %17

17:                                               ; preds = %14
  %18 = getelementptr inbounds nuw i8, ptr %1, i64 384
  %19 = load ptr, ptr %18, align 8, !tbaa !53
  %20 = tail call i32 @H5AC_proxy_entry_remove_child(ptr noundef nonnull %16, ptr noundef %19) #6
  %21 = icmp slt i32 %20, 0
  br i1 %21, label %22, label %26

22:                                               ; preds = %17
  %23 = load i64, ptr @H5E_FARRAY_g, align 8, !tbaa !15
  %24 = load i64, ptr @H5E_CANTUNDEPEND_g, align 8, !tbaa !15
  %25 = tail call i32 (ptr, ptr, i32, i64, i64, ptr, ...) @H5E_printf_stack(ptr noundef nonnull @.str.3, ptr noundef nonnull @__func__.H5FA__cache_hdr_notify, i32 noundef 457, i64 noundef %23, i64 noundef %24, ptr noundef nonnull @.str.12) #6
  br label %41

26:                                               ; preds = %17
  store ptr null, ptr %15, align 8, !tbaa !52
  br label %27

27:                                               ; preds = %26, %14
  %28 = getelementptr inbounds nuw i8, ptr %1, i64 384
  %29 = load ptr, ptr %28, align 8, !tbaa !53
  %.not15 = icmp eq ptr %29, null
  br i1 %.not15, label %41, label %30

30:                                               ; preds = %27
  %31 = tail call i32 @H5AC_proxy_entry_remove_child(ptr noundef nonnull %29, ptr noundef nonnull %1) #6
  %32 = icmp slt i32 %31, 0
  br i1 %32, label %33, label %41

33:                                               ; preds = %30
  %34 = load i64, ptr @H5E_FARRAY_g, align 8, !tbaa !15
  %35 = load i64, ptr @H5E_CANTUNDEPEND_g, align 8, !tbaa !15
  %36 = tail call i32 (ptr, ptr, i32, i64, i64, ptr, ...) @H5E_printf_stack(ptr noundef nonnull @.str.3, ptr noundef nonnull @__func__.H5FA__cache_hdr_notify, i32 noundef 466, i64 noundef %34, i64 noundef %35, ptr noundef nonnull @.str.13) #6
  br label %41

37:                                               ; preds = %13
  %38 = load i64, ptr @H5E_FARRAY_g, align 8, !tbaa !15
  %39 = load i64, ptr @H5E_BADVALUE_g, align 8, !tbaa !15
  %40 = tail call i32 (ptr, ptr, i32, i64, i64, ptr, ...) @H5E_printf_stack(ptr noundef nonnull @.str.3, ptr noundef nonnull @__func__.H5FA__cache_hdr_notify, i32 noundef 473, i64 noundef %38, i64 noundef %39, ptr noundef nonnull @.str.14) #6
  br label %41

41:                                               ; preds = %22, %33, %37, %9, %13, %13, %13, %13, %13, %13, %13, %13, %13, %30, %27, %2
  %.0 = phi i32 [ -1, %37 ], [ -1, %22 ], [ -1, %33 ], [ 0, %30 ], [ 0, %27 ], [ 0, %13 ], [ 0, %13 ], [ 0, %13 ], [ 0, %13 ], [ 0, %13 ], [ 0, %13 ], [ 0, %13 ], [ 0, %13 ], [ 0, %13 ], [ 0, %9 ], [ 0, %2 ]
  ret i32 %.0
}